; Function Attrs: null_pointer_is_valid sspstrong uwtable
define internal fastcc noundef i32 @PIDL_dissect_ipv4address(ptr noundef %0, i32 noundef %1, ptr noundef readonly captures(none) %2, ptr noundef %3, ptr noundef readonly captures(none) %4, i32 noundef %5) unnamed_addr #0 {
  %7 = getelementptr inbounds nuw i8, ptr %4, i64 25
  %8 = load i8, ptr %7, align 1, !range !6, !noundef !7
  %9 = trunc nuw i8 %8 to i1
  br i1 %9, label %30, label %10

10:                                               ; preds = %6
  %11 = getelementptr inbounds nuw i8, ptr %4, i64 26
  %12 = load i8, ptr %11, align 2, !range !6, !noundef !7
  %13 = trunc nuw i8 %12 to i1
  br i1 %13, label %18, label %14

14:                                               ; preds = %10
  %15 = srem i32 %1, 4
  %.not = icmp eq i32 %15, 0
  br i1 %.not, label %18, label %16

16:                                               ; preds = %14
  %reass.sub = add i32 %1, 4
  %17 = sub i32 %reass.sub, %15
  br label %18

18:                                               ; preds = %16, %14, %10
  %.022 = phi i32 [ %1, %10 ], [ %17, %16 ], [ %1, %14 ]
  %19 = tail call ptr @proto_tree_add_item(ptr noundef %3, i32 noundef %5, ptr noundef %0, i32 noundef %.022, i32 noundef 4, i32 noundef 0)
  %20 = getelementptr inbounds nuw i8, ptr %2, i64 408
  %21 = load ptr, ptr %20, align 8
  %22 = tail call ptr @tvb_address_to_str(ptr noundef %21, ptr noundef %0, i32 noundef 2, i32 noundef %.022)
  %23 = tail call ptr @proto_registrar_get_nth(i32 noundef %5)
  %24 = tail call ptr @proto_tree_get_parent(ptr noundef %3)
  %25 = load ptr, ptr %23, align 8
  tail call void (ptr, ptr, ...) @proto_item_append_text(ptr noundef %24, ptr noundef nonnull @.str.115, ptr noundef %25, ptr noundef %22)
  %26 = getelementptr inbounds nuw i8, ptr %2, i64 8
  %27 = load ptr, ptr %26, align 8
  %28 = load ptr, ptr %23, align 8
  tail call void (ptr, i32, ptr, ...) @col_append_fstr(ptr noundef %27, i32 noundef 25, ptr noundef nonnull @.str.115, ptr noundef %28, ptr noundef %22)
  %29 = add i32 %.022, 4
  br label %30

30:                                               ; preds = %6, %18
  %.0 = phi i32 [ %29, %18 ], [ %1, %6 ]
  ret i32 %.0
}